target datalayout = "e-m:e-p270:32:32-p271:32:32-p272:64:64-i64:64-i128:128-f80:128-n8:16:32:64-S128"
target triple = "x86_64-pc-linux-gnu"

%struct.lua_State = type { %struct.GCRef, i8, i8, i8, i8, %struct.MRef, %struct.GCRef, ptr, ptr, %struct.MRef, %struct.MRef, %struct.GCRef, %struct.GCRef, ptr, i32 }
%struct.MRef = type { i64 }
%struct.GCRef = type { i64 }
%union.TValue = type { i64 }
%struct.CTState = type { ptr, i32, i32, ptr, ptr, ptr, %struct.CCallback, [128 x i16] }
%struct.CCallback = type { [8 x %union.FPRCBArg], [8 x i64], ptr, ptr, ptr, i32, i32, i32 }
%union.FPRCBArg = type { double }
%struct.global_State = type { ptr, ptr, %struct.GCState, %struct.GCstr, i8, i8, i8, i8, %struct.StrInternState, i32, %struct.GCRef, %struct.SBuf, %union.TValue, %union.TValue, %struct.Node, %union.TValue, %struct.GCupval, i32, i32, ptr, ptr, ptr, i32, i32, %struct.GCRef, %struct.MRef, %struct.MRef, %struct.PRNGState, [39 x %struct.GCRef] }
%struct.GCState = type { i64, i64, i8, i8, i8, i8, i32, %struct.GCRef, %struct.MRef, %struct.GCRef, %struct.GCRef, %struct.GCRef, %struct.GCRef, i64, i64, i32, i32, %struct.MRef }
%struct.GCstr = type { %struct.GCRef, i8, i8, i8, i8, i32, i32, i32 }
%struct.StrInternState = type { ptr, i32, i32, i32, i8, i8, i8, i8, i64 }
%struct.SBuf = type { ptr, ptr, ptr, %struct.MRef }
%struct.Node = type { %union.TValue, %union.TValue, %struct.MRef }
%struct.GCupval = type { %struct.GCRef, i8, i8, i8, i8, %union.anon, %struct.MRef, i32 }
%union.anon = type { %struct.anon.1 }
%struct.anon.1 = type { %struct.GCRef, %struct.GCRef }
%struct.PRNGState = type { [4 x i64] }
%struct.GCcdata = type { %struct.GCRef, i8, i8, i16 }
%struct.CType = type { i32, i32, i16, i16, %struct.GCRef }

; Function Attrs: alwaysinline nounwind uwtable
define internal i32 @ctype_check(ptr noundef %0, i32 noundef %1) #3 {
  %3 = alloca ptr, align 8
  %4 = alloca i32, align 4
  store ptr %0, ptr %3, align 8, !tbaa !9
  store i32 %1, ptr %4, align 4, !tbaa !34
  %5 = load i32, ptr %4, align 4, !tbaa !34
  ret i32 %5
}

; Function Attrs: alwaysinline nounwind uwtable
define internal ptr @ctype_child(ptr noundef %0, ptr noundef %1) #3 {
  %3 = alloca ptr, align 8
  %4 = alloca ptr, align 8
  store ptr %0, ptr %3, align 8, !tbaa !9
  store ptr %1, ptr %4, align 8, !tbaa !38
  %5 = load ptr, ptr %3, align 8, !tbaa !9
  %6 = load ptr, ptr %4, align 8, !tbaa !38
  %7 = getelementptr inbounds nuw %struct.CType, ptr %6, i32 0, i32 0
  %8 = load i32, ptr %7, align 8, !tbaa !55
  %9 = and i32 %8, 65535
  %10 = call ptr @ctype_get(ptr noundef %5, i32 noundef %9)
  ret ptr %10
}

; Function Attrs: alwaysinline nounwind uwtable
define internal ptr @ctype_get(ptr noundef %0, i32 noundef %1) #3 {
  %3 = alloca ptr, align 8
  %4 = alloca i32, align 4
  store ptr %0, ptr %3, align 8, !tbaa !9
  store i32 %1, ptr %4, align 4, !tbaa !34
  %5 = load ptr, ptr %3, align 8, !tbaa !9
  %6 = getelementptr inbounds nuw %struct.CTState, ptr %5, i32 0, i32 0
  %7 = load ptr, ptr %6, align 8, !tbaa !60
  %8 = load ptr, ptr %3, align 8, !tbaa !9
  %9 = load i32, ptr %4, align 4, !tbaa !34
  %10 = call i32 @ctype_check(ptr noundef %8, i32 noundef %9)
  %11 = zext i32 %10 to i64
  %12 = getelementptr inbounds nuw %struct.CType, ptr %7, i64 %11
  ret ptr %12
}

; Function Attrs: alwaysinline nounwind uwtable
define internal ptr @ctype_raw(ptr noundef %0, i32 noundef %1) #3 {
  %3 = alloca ptr, align 8
  %4 = alloca i32, align 4
  %5 = alloca ptr, align 8
  store ptr %0, ptr %3, align 8, !tbaa !9
  store i32 %1, ptr %4, align 4, !tbaa !34
  call void @llvm.lifetime.start.p0(i64 8, ptr %5) #10
  %6 = load ptr, ptr %3, align 8, !tbaa !9
  %7 = load i32, ptr %4, align 4, !tbaa !34
  %8 = call ptr @ctype_get(ptr noundef %6, i32 noundef %7)
  store ptr %8, ptr %5, align 8, !tbaa !38
  br label %9

9:                                                ; preds = %15, %2
  %10 = load ptr, ptr %5, align 8, !tbaa !38
  %11 = getelementptr inbounds nuw %struct.CType, ptr %10, i32 0, i32 0
  %12 = load i32, ptr %11, align 8, !tbaa !55
  %13 = lshr i32 %12, 28
  %14 = icmp eq i32 %13, 8
  br i1 %14, label %15, label %19

15:                                               ; preds = %9
  %16 = load ptr, ptr %3, align 8, !tbaa !9
  %17 = load ptr, ptr %5, align 8, !tbaa !38
  %18 = call ptr @ctype_child(ptr noundef %16, ptr noundef %17)
  store ptr %18, ptr %5, align 8, !tbaa !38
  br label %9, !llvm.loop !64

19:                                               ; preds = %9
  %20 = load ptr, ptr %5, align 8, !tbaa !38
  call void @llvm.lifetime.end.p0(i64 8, ptr %5) #10
  ret ptr %20
}

; Function Attrs: nounwind uwtable
define internal ptr @ffi_checkcdata(ptr noundef %0, i32 noundef %1) #0 {
  %3 = alloca ptr, align 8
  %4 = alloca i32, align 4
  %5 = alloca ptr, align 8
  store ptr %0, ptr %3, align 8, !tbaa !4
  store i32 %1, ptr %4, align 4, !tbaa !34
  call void @llvm.lifetime.start.p0(i64 8, ptr %5) #10
  %6 = load ptr, ptr %3, align 8, !tbaa !4
  %7 = getelementptr inbounds nuw %struct.lua_State, ptr %6, i32 0, i32 7
  %8 = load ptr, ptr %7, align 8, !tbaa !37
  %9 = load i32, ptr %4, align 4, !tbaa !34
  %10 = sext i32 %9 to i64
  %11 = getelementptr inbounds %union.TValue, ptr %8, i64 %10
  %12 = getelementptr inbounds %union.TValue, ptr %11, i64 -1
  store ptr %12, ptr %5, align 8, !tbaa !30
  %13 = load ptr, ptr %5, align 8, !tbaa !30
  %14 = load ptr, ptr %3, align 8, !tbaa !4
  %15 = getelementptr inbounds nuw %struct.lua_State, ptr %14, i32 0, i32 8
  %16 = load ptr, ptr %15, align 8, !tbaa !11
  %17 = icmp ult ptr %13, %16
  br i1 %17, label %18, label %24

18:                                               ; preds = %2
  %19 = load ptr, ptr %5, align 8, !tbaa !30
  %20 = load i64, ptr %19, align 8, !tbaa !26
  %21 = ashr i64 %20, 47
  %22 = trunc i64 %21 to i32
  %23 = icmp eq i32 %22, -11
  br i1 %23, label %27, label %24

24:                                               ; preds = %18, %2
  %25 = load ptr, ptr %3, align 8, !tbaa !4
  %26 = load i32, ptr %4, align 4, !tbaa !34
  call void @lj_err_argt(ptr noundef %25, i32 noundef %26, i32 noundef 10) #11
  unreachable

27:                                               ; preds = %18
  %28 = load ptr, ptr %5, align 8, !tbaa !30
  %29 = getelementptr inbounds nuw %struct.GCRef, ptr %28, i32 0, i32 0
  %30 = load i64, ptr %29, align 8, !tbaa !26
  %31 = and i64 %30, 140737488355327
  %32 = inttoptr i64 %31 to ptr
  call void @llvm.lifetime.end.p0(i64 8, ptr %5) #10
  ret ptr %32
}

; Function Attrs: alwaysinline nounwind uwtable
define internal ptr @ctype_cts(ptr noundef %0) #3 {
  %2 = alloca ptr, align 8
  %3 = alloca ptr, align 8
  store ptr %0, ptr %2, align 8, !tbaa !4
  call void @llvm.lifetime.start.p0(i64 8, ptr %3) #10
  %4 = load ptr, ptr %2, align 8, !tbaa !4
  %5 = getelementptr inbounds nuw %struct.lua_State, ptr %4, i32 0, i32 5
  %6 = getelementptr inbounds nuw %struct.MRef, ptr %5, i32 0, i32 0
  %7 = load i64, ptr %6, align 8, !tbaa !27
  %8 = inttoptr i64 %7 to ptr
  %9 = getelementptr inbounds nuw %struct.global_State, ptr %8, i32 0, i32 26
  %10 = getelementptr inbounds nuw %struct.MRef, ptr %9, i32 0, i32 0
  %11 = load i64, ptr %10, align 8, !tbaa !61
  %12 = inttoptr i64 %11 to ptr
  store ptr %12, ptr %3, align 8, !tbaa !9
  %13 = load ptr, ptr %2, align 8, !tbaa !4
  %14 = load ptr, ptr %3, align 8, !tbaa !9
  %15 = getelementptr inbounds nuw %struct.CTState, ptr %14, i32 0, i32 3
  store ptr %13, ptr %15, align 8, !tbaa !62
  %16 = load ptr, ptr %3, align 8, !tbaa !9
  call void @llvm.lifetime.end.p0(i64 8, ptr %3) #10
  ret ptr %16
}

; Function Attrs: nounwind uwtable
define internal i32 @ffi_pairs(ptr noundef %0, i32 noundef %1) #0 {
  %3 = alloca ptr, align 8
  %4 = alloca i32, align 4
  %5 = alloca ptr, align 8
  %6 = alloca i32, align 4
  %7 = alloca ptr, align 8
  %8 = alloca ptr, align 8
  store ptr %0, ptr %3, align 8, !tbaa !4
  store i32 %1, ptr %4, align 4, !tbaa !34
  call void @llvm.lifetime.start.p0(i64 8, ptr %5) #10
  %9 = load ptr, ptr %3, align 8, !tbaa !4
  %10 = call ptr @ctype_cts(ptr noundef %9)
  store ptr %10, ptr %5, align 8, !tbaa !9
  call void @llvm.lifetime.start.p0(i64 4, ptr %6) #10
  %11 = load ptr, ptr %3, align 8, !tbaa !4
  %12 = call ptr @ffi_checkcdata(ptr noundef %11, i32 noundef 1)
  %13 = getelementptr inbounds nuw %struct.GCcdata, ptr %12, i32 0, i32 3
  %14 = load i16, ptr %13, align 2, !tbaa !52
  %15 = zext i16 %14 to i32
  store i32 %15, ptr %6, align 4, !tbaa !34
  call void @llvm.lifetime.start.p0(i64 8, ptr %7) #10
  %16 = load ptr, ptr %5, align 8, !tbaa !9
  %17 = load i32, ptr %6, align 4, !tbaa !34
  %18 = call ptr @ctype_raw(ptr noundef %16, i32 noundef %17)
  store ptr %18, ptr %7, align 8, !tbaa !38
  call void @llvm.lifetime.start.p0(i64 8, ptr %8) #10
  %19 = load ptr, ptr %7, align 8, !tbaa !38
  %20 = getelementptr inbounds nuw %struct.CType, ptr %19, i32 0, i32 0
  %21 = load i32, ptr %20, align 8, !tbaa !55
  %22 = lshr i32 %21, 28
  %23 = icmp eq i32 %22, 2
  br i1 %23, label %24, label %29

24:                                               ; preds = %2
  %25 = load ptr, ptr %7, align 8, !tbaa !38
  %26 = getelementptr inbounds nuw %struct.CType, ptr %25, i32 0, i32 0
  %27 = load i32, ptr %26, align 8, !tbaa !55
  %28 = and i32 %27, 65535
  store i32 %28, ptr %6, align 4, !tbaa !34
  br label %29

29:                                               ; preds = %24, %2
  %30 = load ptr, ptr %5, align 8, !tbaa !9
  %31 = load i32, ptr %6, align 4, !tbaa !34
  %32 = load i32, ptr %4, align 4, !tbaa !34
  %33 = call ptr @lj_ctype_meta(ptr noundef %30, i32 noundef %31, i32 noundef %32)
  store ptr %33, ptr %8, align 8, !tbaa !30
  %34 = load ptr, ptr %8, align 8, !tbaa !30
  %35 = icmp ne ptr %34, null
  br i1 %35, label %56, label %36

36:                                               ; preds = %29
  %37 = load ptr, ptr %3, align 8, !tbaa !4
  %38 = load ptr, ptr %3, align 8, !tbaa !4
  %39 = load i32, ptr %6, align 4, !tbaa !34
  %40 = call ptr @lj_ctype_repr(ptr noundef %38, i32 noundef %39, ptr noundef null)
  %41 = getelementptr inbounds %struct.GCstr, ptr %40, i64 1
  %42 = load ptr, ptr %3, align 8, !tbaa !4
  %43 = getelementptr inbounds nuw %struct.lua_State, ptr %42, i32 0, i32 5
  %44 = getelementptr inbounds nuw %struct.MRef, ptr %43, i32 0, i32 0
  %45 = load i64, ptr %44, align 8, !tbaa !27
  %46 = inttoptr i64 %45 to ptr
  %47 = getelementptr inbounds nuw %struct.global_State, ptr %46, i32 0, i32 28
  %48 = load i32, ptr %4, align 4, !tbaa !34
  %49 = add i32 0, %48
  %50 = zext i32 %49 to i64
  %51 = getelementptr inbounds nuw [39 x %struct.GCRef], ptr %47, i64 0, i64 %50
  %52 = getelementptr inbounds nuw %struct.GCRef, ptr %51, i32 0, i32 0
  %53 = load i64, ptr %52, align 8, !tbaa !28
  %54 = inttoptr i64 %53 to ptr
  %55 = getelementptr inbounds %struct.GCstr, ptr %54, i64 1
  call void (ptr, i32, ...) @lj_err_callerv(ptr noundef %37, i32 noundef 3566, ptr noundef %41, ptr noundef %55) #11
  unreachable

56:                                               ; preds = %29
  %57 = load ptr, ptr %3, align 8, !tbaa !4
  %58 = load ptr, ptr %8, align 8, !tbaa !30
  %59 = call i32 @lj_meta_tailcall(ptr noundef %57, ptr noundef %58)
  call void @llvm.lifetime.end.p0(i64 8, ptr %8) #10
  call void @llvm.lifetime.end.p0(i64 8, ptr %7) #10
  call void @llvm.lifetime.end.p0(i64 4, ptr %6) #10
  call void @llvm.lifetime.end.p0(i64 8, ptr %5) #10
  ret i32 %59
}