; Function Attrs: nounwind uwtable
define internal fastcc i32 @ffi_pairs(ptr noundef %0, i32 noundef range(i32 20, 22) %1) unnamed_addr #0 {
  %3 = getelementptr inbounds nuw i8, ptr %0, i64 16
  %4 = load i64, ptr %3, align 8, !tbaa !24
  %5 = inttoptr i64 %4 to ptr
  %6 = getelementptr inbounds nuw i8, ptr %5, i64 384
  %7 = load i64, ptr %6, align 8, !tbaa !41
  %8 = inttoptr i64 %7 to ptr
  %9 = getelementptr inbounds nuw i8, ptr %8, i64 16
  store ptr %0, ptr %9, align 8, !tbaa !42
  %10 = getelementptr inbounds nuw i8, ptr %0, i64 32
  %11 = load ptr, ptr %10, align 8, !tbaa !44
  %12 = getelementptr inbounds nuw i8, ptr %0, i64 40
  %13 = load ptr, ptr %12, align 8, !tbaa !4
  %14 = icmp ult ptr %11, %13
  br i1 %14, label %15, label %18

15:                                               ; preds = %2
  %16 = load i64, ptr %11, align 8, !tbaa !23
  %.mask.i = and i64 %16, -140737488355328
  %17 = icmp eq i64 %.mask.i, -1548112371908608
  br i1 %17, label %ffi_checkcdata.exit, label %18

18:                                               ; preds = %15, %2
  tail call void @lj_err_argt(ptr noundef nonnull %0, i32 noundef 1, i32 noundef 10) #10
  unreachable

ffi_checkcdata.exit:                              ; preds = %15
  %19 = and i64 %16, 140737488355327
  %20 = inttoptr i64 %19 to ptr
  %21 = getelementptr inbounds nuw i8, ptr %20, i64 10
  %22 = load i16, ptr %21, align 2, !tbaa !48
  %23 = load ptr, ptr %8, align 8, !tbaa !51
  %24 = zext i16 %22 to i64
  br label %25

25:                                               ; preds = %25, %ffi_checkcdata.exit
  %.pn = phi i64 [ %24, %ffi_checkcdata.exit ], [ %29, %25 ]
  %.0.i = getelementptr inbounds nuw %struct.CType, ptr %23, i64 %.pn
  %26 = load i32, ptr %.0.i, align 8, !tbaa !52
  %27 = icmp slt i32 %26, -1879048192
  %28 = and i32 %26, 65535
  %29 = zext nneg i32 %28 to i64
  br i1 %27, label %25, label %ctype_raw.exit, !llvm.loop !54

ctype_raw.exit:                                   ; preds = %25
  %30 = zext i16 %22 to i32
  %.mask = and i32 %26, -268435456
  %31 = icmp eq i32 %.mask, 536870912
  %spec.select = select i1 %31, i32 %28, i32 %30
  %32 = tail call ptr @lj_ctype_meta(ptr noundef nonnull %8, i32 noundef %spec.select, i32 noundef %1) #9
  %.not = icmp eq ptr %32, null
  br i1 %.not, label %33, label %44

33:                                               ; preds = %ctype_raw.exit
  %34 = tail call ptr @lj_ctype_repr(ptr noundef %0, i32 noundef %spec.select, ptr noundef null) #9
  %35 = getelementptr inbounds nuw i8, ptr %34, i64 24
  %36 = load i64, ptr %3, align 8, !tbaa !24
  %37 = inttoptr i64 %36 to ptr
  %38 = getelementptr inbounds nuw i8, ptr %37, i64 424
  %39 = zext nneg i32 %1 to i64
  %40 = getelementptr inbounds nuw [39 x %struct.GCRef], ptr %38, i64 0, i64 %39
  %41 = load i64, ptr %40, align 8, !tbaa !25
  %42 = inttoptr i64 %41 to ptr
  %43 = getelementptr inbounds nuw i8, ptr %42, i64 24
  tail call void (ptr, i32, ...) @lj_err_callerv(ptr noundef %0, i32 noundef 3566, ptr noundef nonnull %35, ptr noundef nonnull %43) #10
  unreachable

44:                                               ; preds = %ctype_raw.exit
  %45 = tail call i32 @lj_meta_tailcall(ptr noundef %0, ptr noundef nonnull %32) #9
  ret i32 %45
}